; Function Attrs: mustprogress uwtable
define noundef i32 @_ZN5dtm_t15enumerate_hartsEv(ptr nocapture noundef nonnull align 8 dereferenceable(928) %0) local_unnamed_addr #0 align 2 {
  %2 = getelementptr inbounds i8, ptr %0, i64 872
  store i64 4294967312, ptr %2, align 8
  %.sroa.22.0..sroa_idx.i.i = getelementptr inbounds i8, ptr %0, i64 880
  store i32 0, ptr %.sroa.22.0..sroa_idx.i.i, align 8
  %3 = getelementptr inbounds i8, ptr %0, i64 728
  %4 = load ptr, ptr %3, align 8
  tail call void @_ZN9context_t9switch_toEv(ptr noundef nonnull align 8 dereferenceable(32) %4)
  %5 = getelementptr inbounds i8, ptr %0, i64 888
  %6 = load i32, ptr %5, align 8
  %7 = or i32 %6, 67108864
  store i64 8589934608, ptr %2, align 8
  store i32 %7, ptr %.sroa.22.0..sroa_idx.i.i, align 8
  %8 = load ptr, ptr %3, align 8
  tail call void @_ZN9context_t9switch_toEv(ptr noundef nonnull align 8 dereferenceable(32) %8)
  store i64 4294967313, ptr %2, align 8
  store i32 0, ptr %.sroa.22.0..sroa_idx.i.i, align 8
  %9 = load ptr, ptr %3, align 8
  tail call void @_ZN9context_t9switch_toEv(ptr noundef nonnull align 8 dereferenceable(32) %9)
  store i64 4294967312, ptr %2, align 8
  store i32 0, ptr %.sroa.22.0..sroa_idx.i.i, align 8
  %10 = load ptr, ptr %3, align 8
  tail call void @_ZN9context_t9switch_toEv(ptr noundef nonnull align 8 dereferenceable(32) %10)
  %11 = load i32, ptr %5, align 8
  %12 = lshr i32 %11, 26
  %13 = and i32 %12, 1
  %14 = getelementptr inbounds i8, ptr %0, i64 924
  %15 = add nuw nsw i32 %13, 1
  br label %16

16:                                               ; preds = %1, %26
  %.012 = phi i32 [ 0, %1 ], [ %27, %26 ]
  store i64 4294967312, ptr %2, align 8
  store i32 0, ptr %.sroa.22.0..sroa_idx.i.i, align 8
  %17 = load ptr, ptr %3, align 8
  tail call void @_ZN9context_t9switch_toEv(ptr noundef nonnull align 8 dereferenceable(32) %17)
  %18 = load i32, ptr %5, align 8
  %19 = and i32 %18, -67108865
  %20 = shl nsw i32 %.012, 26
  %21 = or disjoint i32 %19, %20
  store i64 8589934608, ptr %2, align 8
  store i32 %21, ptr %.sroa.22.0..sroa_idx.i.i, align 8
  %22 = load ptr, ptr %3, align 8
  tail call void @_ZN9context_t9switch_toEv(ptr noundef nonnull align 8 dereferenceable(32) %22)
  store i32 %.012, ptr %14, align 4
  store i64 4294967313, ptr %2, align 8
  store i32 0, ptr %.sroa.22.0..sroa_idx.i.i, align 8
  %23 = load ptr, ptr %3, align 8
  tail call void @_ZN9context_t9switch_toEv(ptr noundef nonnull align 8 dereferenceable(32) %23)
  %24 = load i32, ptr %5, align 8
  %25 = and i32 %24, 16384
  %.not7 = icmp eq i32 %25, 0
  br i1 %.not7, label %26, label %28

26:                                               ; preds = %16
  %27 = add nuw nsw i32 %.012, 1
  %exitcond.not = icmp eq i32 %.012, %13
  br i1 %exitcond.not, label %28, label %16, !llvm.loop !4

28:                                               ; preds = %16, %26
  %.0.lcssa = phi i32 [ %.012, %16 ], [ %15, %26 ]
  ret i32 %.0.lcssa
}